; Function Attrs: nounwind uwtable
define ptr @l_Lean_Meta_IndPredBelow_mkBelowMatcher_newMotive___lambda__2(ptr noundef readonly captures(none) %0, ptr noundef %1, ptr noundef %2, ptr noundef %3, ptr noundef %4, ptr noundef %5, ptr noundef %6, ptr noundef %7, ptr noundef %8, ptr noundef %9) local_unnamed_addr #0 {
  %11 = getelementptr inbounds nuw i8, ptr %0, i64 56
  %12 = load ptr, ptr %11, align 8, !tbaa !4
  %13 = getelementptr i8, ptr %12, i64 8
  %.val = load i64, ptr %13, align 8, !tbaa !8
  %14 = load ptr, ptr @l_Lean_Meta_IndPredBelow_mkBelowMatcher_newMotive___lambda__2___closed__2, align 8, !tbaa !4
  %15 = tail call ptr @l___private_Lean_CoreM_0__Lean_Core_mkFreshNameImp(ptr noundef %14, ptr noundef %7, ptr noundef %8, ptr noundef %9) #6
  %16 = getelementptr inbounds nuw i8, ptr %15, i64 8
  %17 = load ptr, ptr %16, align 8, !tbaa !4
  %18 = ptrtoint ptr %17 to i64
  %19 = and i64 %18, 1
  %.not = icmp eq i64 %19, 0
  br i1 %.not, label %20, label %lean_inc.exit30

20:                                               ; preds = %10
  %.val.i = load i32, ptr %17, align 4, !tbaa !12
  %21 = icmp sgt i32 %.val.i, 0
  br i1 %21, label %22, label %24, !prof !11

22:                                               ; preds = %20
  %23 = add nuw i32 %.val.i, 1
  store i32 %23, ptr %17, align 4, !tbaa !12
  br label %lean_inc.exit30

24:                                               ; preds = %20
  %.not.i31 = icmp eq i32 %.val.i, 0
  br i1 %.not.i31, label %lean_inc.exit30, label %25

25:                                               ; preds = %24
  tail call void @lean_inc_ref_cold(ptr noundef nonnull %17) #6
  br label %lean_inc.exit30

lean_inc.exit30:                                  ; preds = %25, %24, %22, %10
  %26 = getelementptr inbounds nuw i8, ptr %15, i64 16
  %27 = load ptr, ptr %26, align 8, !tbaa !4
  %28 = ptrtoint ptr %27 to i64
  %29 = and i64 %28, 1
  %.not35 = icmp eq i64 %29, 0
  br i1 %.not35, label %30, label %lean_inc.exit

30:                                               ; preds = %lean_inc.exit30
  %.val.i32 = load i32, ptr %27, align 4, !tbaa !12
  %31 = icmp sgt i32 %.val.i32, 0
  br i1 %31, label %32, label %34, !prof !11

32:                                               ; preds = %30
  %33 = add nuw i32 %.val.i32, 1
  store i32 %33, ptr %27, align 4, !tbaa !12
  br label %lean_inc.exit

34:                                               ; preds = %30
  %.not.i33 = icmp eq i32 %.val.i32, 0
  br i1 %.not.i33, label %lean_inc.exit, label %35

35:                                               ; preds = %34
  tail call void @lean_inc_ref_cold(ptr noundef nonnull %27) #6
  br label %lean_inc.exit

lean_inc.exit:                                    ; preds = %35, %34, %32, %lean_inc.exit30
  %36 = ptrtoint ptr %15 to i64
  %37 = and i64 %36, 1
  %.not36 = icmp eq i64 %37, 0
  br i1 %.not36, label %38, label %lean_dec.exit

38:                                               ; preds = %lean_inc.exit
  %39 = load i32, ptr %15, align 4, !tbaa !12
  %40 = icmp sgt i32 %39, 1
  br i1 %40, label %41, label %43, !prof !11

41:                                               ; preds = %38
  %42 = add nsw i32 %39, -1
  store i32 %42, ptr %15, align 4, !tbaa !12
  br label %lean_dec.exit

43:                                               ; preds = %38
  %.not.i = icmp eq i32 %39, 0
  br i1 %.not.i, label %lean_dec.exit, label %44

44:                                               ; preds = %43
  tail call void @lean_dec_ref_cold(ptr noundef nonnull %15) #6
  br label %lean_dec.exit

lean_dec.exit:                                    ; preds = %44, %43, %41, %lean_inc.exit
  %45 = tail call ptr @l_Lean_Expr_replaceFVars(ptr noundef %1, ptr noundef %2, ptr noundef %3) #6
  tail call void @lean_inc_heartbeat() #6
  %46 = tail call noalias ptr @mi_malloc_small(i64 noundef 48) #6
  %47 = icmp eq ptr %46, null
  br i1 %47, label %48, label %lean_alloc_closure.exit

48:                                               ; preds = %lean_dec.exit
  tail call void @lean_internal_panic_out_of_memory() #7
  unreachable

lean_alloc_closure.exit:                          ; preds = %lean_dec.exit
  %49 = shl i64 %.val, 1
  %50 = or disjoint i64 %49, 1
  %51 = inttoptr i64 %50 to ptr
  %52 = getelementptr inbounds nuw i8, ptr %46, i64 4
  store i32 1, ptr %46, align 4, !tbaa !12
  store i32 -184549328, ptr %52, align 4
  %53 = getelementptr inbounds nuw i8, ptr %46, i64 8
  store ptr @l_Lean_Meta_IndPredBelow_mkBelowMatcher_newMotive___lambda__1___boxed, ptr %53, align 8, !tbaa !4
  %54 = getelementptr inbounds nuw i8, ptr %46, i64 16
  store i16 9, ptr %54, align 8, !tbaa !15
  %55 = getelementptr inbounds nuw i8, ptr %46, i64 18
  store i16 3, ptr %55, align 2, !tbaa !15
  %56 = getelementptr inbounds nuw i8, ptr %46, i64 24
  store ptr %3, ptr %56, align 8, !tbaa !4
  %57 = getelementptr inbounds nuw i8, ptr %46, i64 32
  store ptr %51, ptr %57, align 8, !tbaa !4
  %58 = getelementptr inbounds nuw i8, ptr %46, i64 40
  store ptr %4, ptr %58, align 8, !tbaa !4
  %59 = tail call ptr @l_Lean_Meta_withLocalDecl___at_Lean_Meta_Simp_Arith_withAbstractAtoms_go___spec__1___rarg(ptr noundef %17, i8 noundef zeroext 0, ptr noundef %45, ptr noundef nonnull %46, i8 noundef zeroext 0, ptr noundef %5, ptr noundef %6, ptr noundef %7, ptr noundef %8, ptr noundef %27) #6
  ret ptr %59
}